target datalayout = "e-m:e-p270:32:32-p271:32:32-p272:64:64-i64:64-i128:128-f80:128-n8:16:32:64-S128"
target triple = "x86_64-pc-linux-gnu"

%struct.wtap_reader = type { i32, i64, i64, i32, %struct.wtap_reader_buf, %struct.wtap_reader_buf, i8, i64, i64, i32, i32, i8, i64, i8, i32, ptr, %struct.z_stream_s, i8, ptr, ptr, %struct.LZ4F_frameInfo_t, [19 x i8], ptr, ptr }
%struct.wtap_reader_buf = type { ptr, ptr, i32 }
%struct.z_stream_s = type { ptr, i32, i64, ptr, i32, i64, ptr, ptr, ptr, ptr, ptr, i32, i64, i64 }
%struct.LZ4F_frameInfo_t = type { i32, i32, i32, i32, i64, i32, i32 }

; Function Attrs: nounwind null_pointer_is_valid sspstrong uwtable
define i64 @file_tell(ptr noundef %0) #3 {
  %2 = alloca ptr, align 8
  store ptr %0, ptr %2, align 8
  %3 = load ptr, ptr %2, align 8
  %4 = getelementptr inbounds nuw %struct.wtap_reader, ptr %3, i32 0, i32 2
  %5 = load i64, ptr %4, align 8
  %6 = load ptr, ptr %2, align 8
  %7 = getelementptr inbounds nuw %struct.wtap_reader, ptr %6, i32 0, i32 13
  %8 = load i8, ptr %7, align 8, !range !9, !noundef !10
  %9 = trunc i8 %8 to i1
  br i1 %9, label %10, label %14

10:                                               ; preds = %1
  %11 = load ptr, ptr %2, align 8
  %12 = getelementptr inbounds nuw %struct.wtap_reader, ptr %11, i32 0, i32 12
  %13 = load i64, ptr %12, align 8
  br label %15

14:                                               ; preds = %1
  br label %15

15:                                               ; preds = %14, %10
  %16 = phi i64 [ %13, %10 ], [ 0, %14 ]
  %17 = add i64 %5, %16
  ret i64 %17
}