; Function Attrs: mustprogress nofree norecurse nosync nounwind null_pointer_is_valid sspstrong willreturn memory(argmem: read) uwtable
define i64 @file_tell(ptr noundef readonly captures(none) %0) local_unnamed_addr #14 {
  %2 = getelementptr inbounds nuw i8, ptr %0, i64 16
  %3 = load i64, ptr %2, align 8
  %4 = getelementptr inbounds nuw i8, ptr %0, i64 128
  %5 = load i8, ptr %4, align 8, !range !9, !noundef !10
  %6 = trunc nuw i8 %5 to i1
  br i1 %6, label %7, label %10

7:                                                ; preds = %1
  %8 = getelementptr inbounds nuw i8, ptr %0, i64 120
  %9 = load i64, ptr %8, align 8
  br label %10

10:                                               ; preds = %1, %7
  %11 = phi i64 [ %9, %7 ], [ 0, %1 ]
  %12 = add i64 %11, %3
  ret i64 %12
}